; Function Attrs: mustprogress nounwind uwtable
define hidden void @_ZNK18AdaptiveSizePolicy24print_tenuring_thresholdEj(ptr nocapture noundef nonnull readonly align 8 dereferenceable(232) %0, i32 noundef %1) local_unnamed_addr #0 align 2 {
  %3 = getelementptr inbounds i8, ptr %0, i64 206
  %4 = load i8, ptr %3, align 2
  %5 = trunc i8 %4 to i1
  br i1 %5, label %6, label %8

6:                                                ; preds = %2
  %7 = load volatile ptr, ptr getelementptr inbounds (i8, ptr @_ZN16LogTagSetMappingILN6LogTag4typeE49ELS1_40ELS1_0ELS1_0ELS1_0ELS1_0EE7_tagsetE, i64 56), align 8
  %.not4 = icmp eq ptr %7, null
  br i1 %.not4, label %20, label %.sink.split

8:                                                ; preds = %2
  %9 = getelementptr inbounds i8, ptr %0, i64 205
  %10 = load i8, ptr %9, align 1
  %11 = trunc i8 %10 to i1
  br i1 %11, label %12, label %14

12:                                               ; preds = %8
  %13 = load volatile ptr, ptr getelementptr inbounds (i8, ptr @_ZN16LogTagSetMappingILN6LogTag4typeE49ELS1_40ELS1_0ELS1_0ELS1_0ELS1_0EE7_tagsetE, i64 56), align 8
  %.not3 = icmp eq ptr %13, null
  br i1 %.not3, label %20, label %.sink.split

14:                                               ; preds = %8
  %15 = getelementptr inbounds i8, ptr %0, i64 204
  %16 = load i8, ptr %15, align 4
  %17 = trunc i8 %16 to i1
  br i1 %17, label %18, label %20

18:                                               ; preds = %14
  %19 = load volatile ptr, ptr getelementptr inbounds (i8, ptr @_ZN16LogTagSetMappingILN6LogTag4typeE49ELS1_40ELS1_0ELS1_0ELS1_0ELS1_0EE7_tagsetE, i64 56), align 8
  %.not = icmp eq ptr %19, null
  br i1 %.not, label %20, label %.sink.split

.sink.split:                                      ; preds = %18, %12, %6
  %.str.20.sink = phi ptr [ @.str.19, %6 ], [ @.str.20, %12 ], [ @.str.21, %18 ]
  tail call void (ptr, ...) @_ZN7LogImplILN6LogTag4typeE49ELS1_40ELS1_0ELS1_0ELS1_0ELS1_0EE5writeILN8LogLevel4typeE2EEEvPKcz(ptr noundef nonnull %.str.20.sink, i32 noundef %1)
  br label %20

20:                                               ; preds = %.sink.split, %12, %14, %18, %6
  ret void
}